target datalayout = "e-m:e-p270:32:32-p271:32:32-p272:64:64-i64:64-i128:128-f80:128-n8:16:32:64-S128"
target triple = "x86_64-pc-linux-gnu"

%struct.SDL_Rect = type { i32, i32, i32, i32 }
%struct.SDL_VideoData = type { ptr, ptr, i32, ptr, i64, i32, ptr, i32, i64, i64, %struct.X11_ClipboardData, %struct.X11_ClipboardData, ptr, i64, %struct.X11_SettingsData, i8, %struct.anon.1, [256 x i32], i8, i8, i8, i64, i8, %struct.SDL_Point, i32, ptr, i32, i8, i32, %struct.anon.2, i8, i64, ptr, ptr, i8, i8, i8 }
%struct.X11_ClipboardData = type { ptr, ptr, ptr, i64, i32 }
%struct.X11_SettingsData = type { ptr }
%struct.anon.1 = type { i64, i64, i64, i64, i64, i64, i64, i64, i64, i64, i64, i64, i64, i64, i64, i64, i64, i64, i64, i64, i64, i64, i64, i64, i64, i64, i64, i64, i64, i64, i64, i64, i64, i64, i64, i64, i64, i64, i64, i64, i64, i64, i64, i64, i64, i64, i64, i64, i64, i64, i64, i64, i64 }
%struct.SDL_Point = type { i32, i32 }
%struct.anon.2 = type { ptr, i32, i32, i32, i16, i32, i32 }
%struct.SDL_Window = type { i32, ptr, ptr, i32, i32, i32, i32, i32, i32, i32, i32, float, float, i32, i32, i64, i64, float, i8, i8, i32, i32, %struct.SDL_Rect, %struct.SDL_Rect, %struct.SDL_Rect, i8, i8, i8, %struct.SDL_DisplayMode, %struct.SDL_DisplayMode, %struct.SDL_HDROutputProperties, float, ptr, i8, i8, i8, i8, i8, i8, i8, i8, i8, i32, i32, i32, i32, %struct.SDL_Rect, i32, i8, %struct.SDL_Rect, i32, %struct.SDL_Rect, ptr, ptr, i32, float, i32, i32, ptr, ptr, ptr, ptr, ptr, ptr, ptr, ptr, ptr }
%struct.SDL_DisplayMode = type { i32, i32, i32, i32, float, float, i32, i32, ptr }
%struct.SDL_HDROutputProperties = type { float, float }
%struct.SDL_WindowData = type { ptr, i64, ptr, i64, i8, %struct.XShmSegmentInfo, ptr, ptr, ptr, i8, i32, i32, i32, i32, i8, i8, i8, i64, i32, i64, i8, %struct.SDL_Point, %struct.XConfigureEvent, %struct.XConfigureEvent, ptr, i64, i64, i64, i8, i64, ptr, i8, [4 x i64], %struct.SDL_Rect, i64, %struct._XSyncValue, i8, %struct.SDL_Rect, %struct.SDL_DisplayMode, i32, i32, i8, i8, i8, i8, i8, i8, i8, i8, i32, %struct.XPoint, ptr, ptr, i32, i32, i8 }
%struct.XShmSegmentInfo = type { i64, i32, ptr, i32 }
%struct.XConfigureEvent = type { i32, i64, i32, ptr, i64, i64, i32, i32, i32, i32, i32, i64, i32 }
%struct._XSyncValue = type { i32, i32 }
%struct.XPoint = type { i16, i16 }
%struct.XIGrabModifiers = type { i32, i32 }

@xinput2_initialized = internal global i8 0, align 1
@xinput2_multitouch_supported = internal global i8 0, align 1
@X11_XIUngrabTouchBegin = external global ptr, align 8

; Function Attrs: nounwind uwtable
define hidden zeroext i1 @X11_Xinput2IsMultitouchSupported() #0 {
  %1 = load i8, ptr @xinput2_initialized, align 1, !range !3, !noundef !4
  %2 = trunc i8 %1 to i1
  br i1 %2, label %3, label %6

3:                                                ; preds = %0
  %4 = load i8, ptr @xinput2_multitouch_supported, align 1, !range !3, !noundef !4
  %5 = trunc i8 %4 to i1
  br label %6

6:                                                ; preds = %3, %0
  %7 = phi i1 [ false, %0 ], [ %5, %3 ]
  ret i1 %7
}

; Function Attrs: nounwind uwtable
define hidden void @X11_Xinput2UngrabTouch(ptr noundef %0, ptr noundef %1) #0 {
  %3 = alloca ptr, align 8
  %4 = alloca ptr, align 8
  %5 = alloca ptr, align 8
  %6 = alloca ptr, align 8
  %7 = alloca %struct.XIGrabModifiers, align 4
  %8 = alloca i32, align 4
  store ptr %0, ptr %3, align 8
  store ptr %1, ptr %4, align 8
  call void @llvm.lifetime.start.p0(i64 8, ptr %5) #6
  %9 = load ptr, ptr %4, align 8
  %10 = getelementptr inbounds nuw %struct.SDL_Window, ptr %9, i32 0, i32 59
  %11 = load ptr, ptr %10, align 8
  store ptr %11, ptr %5, align 8
  call void @llvm.lifetime.start.p0(i64 8, ptr %6) #6
  %12 = load ptr, ptr %5, align 8
  %13 = getelementptr inbounds nuw %struct.SDL_WindowData, ptr %12, i32 0, i32 24
  %14 = load ptr, ptr %13, align 8
  %15 = getelementptr inbounds nuw %struct.SDL_VideoData, ptr %14, i32 0, i32 0
  %16 = load ptr, ptr %15, align 8
  store ptr %16, ptr %6, align 8
  call void @llvm.lifetime.start.p0(i64 8, ptr %7) #6
  %17 = call zeroext i1 @X11_Xinput2IsMultitouchSupported()
  br i1 %17, label %19, label %18

18:                                               ; preds = %2
  store i32 1, ptr %8, align 4
  br label %28

19:                                               ; preds = %2
  %20 = getelementptr inbounds nuw %struct.XIGrabModifiers, ptr %7, i32 0, i32 0
  store i32 -2147483648, ptr %20, align 4
  %21 = getelementptr inbounds nuw %struct.XIGrabModifiers, ptr %7, i32 0, i32 1
  store i32 0, ptr %21, align 4
  %22 = load ptr, ptr @X11_XIUngrabTouchBegin, align 8
  %23 = load ptr, ptr %6, align 8
  %24 = load ptr, ptr %5, align 8
  %25 = getelementptr inbounds nuw %struct.SDL_WindowData, ptr %24, i32 0, i32 1
  %26 = load i64, ptr %25, align 8
  %27 = call i32 %22(ptr noundef %23, i32 noundef 0, i64 noundef %26, i32 noundef 1, ptr noundef %7)
  store i32 0, ptr %8, align 4
  br label %28

28:                                               ; preds = %19, %18
  call void @llvm.lifetime.end.p0(i64 8, ptr %7) #6
  call void @llvm.lifetime.end.p0(i64 8, ptr %6) #6
  call void @llvm.lifetime.end.p0(i64 8, ptr %5) #6
  %29 = load i32, ptr %8, align 4
  switch i32 %29, label %31 [
    i32 0, label %30
    i32 1, label %30
  ]

30:                                               ; preds = %28, %28
  ret void

31:                                               ; preds = %28
  unreachable
}