; Function Attrs: nounwind uwtable
define hidden void @X11_Xinput2UngrabTouch(ptr noundef readnone captures(none) %0, ptr noundef readonly captures(none) %1) local_unnamed_addr #0 {
  %3 = alloca %struct.XIGrabModifiers, align 4
  %4 = getelementptr inbounds nuw i8, ptr %1, i64 392
  %5 = load ptr, ptr %4, align 8
  %6 = getelementptr inbounds nuw i8, ptr %5, i64 336
  %7 = load ptr, ptr %6, align 8
  %8 = load ptr, ptr %7, align 8
  call void @llvm.lifetime.start.p0(i64 8, ptr nonnull %3) #8
  %.b1.i = load i1, ptr @xinput2_initialized, align 1
  %9 = load i8, ptr @xinput2_multitouch_supported, align 1, !range !3
  %10 = trunc nuw i8 %9 to i1
  %11 = select i1 %.b1.i, i1 %10, i1 false
  br i1 %11, label %12, label %18

12:                                               ; preds = %2
  store i32 -2147483648, ptr %3, align 4
  %13 = getelementptr inbounds nuw i8, ptr %3, i64 4
  store i32 0, ptr %13, align 4
  %14 = load ptr, ptr @X11_XIUngrabTouchBegin, align 8
  %15 = getelementptr inbounds nuw i8, ptr %5, i64 8
  %16 = load i64, ptr %15, align 8
  %17 = call i32 %14(ptr noundef %8, i32 noundef 0, i64 noundef %16, i32 noundef 1, ptr noundef nonnull %3) #8
  br label %18

18:                                               ; preds = %2, %12
  call void @llvm.lifetime.end.p0(i64 8, ptr nonnull %3) #8
  ret void
}